target datalayout = "e-m:e-p270:32:32-p271:32:32-p272:64:64-i64:64-i128:128-f80:128-n8:16:32:64-S128"
target triple = "x86_64-pc-linux-gnu"

%struct._object = type { %union.anon, ptr }
%union.anon = type { i64 }
%struct.stringio = type { %struct._object, ptr, i64, i64, i64, i32, ptr, i8, i8, i8, i8, ptr, ptr, ptr, ptr, ptr, ptr }
%struct.anon = type { i32, i32 }

@PyExc_ValueError = external global ptr, align 8
@.str.2 = private unnamed_addr constant [38 x i8] c"I/O operation on uninitialized object\00", align 1
@.str.3 = private unnamed_addr constant [29 x i8] c"I/O operation on closed file\00", align 1
@PyExc_OSError = external global ptr, align 8
@.str.12 = private unnamed_addr constant [5 x i8] c"seek\00", align 1
@.str.21 = private unnamed_addr constant [41 x i8] c"Invalid whence (%i, should be 0, 1 or 2)\00", align 1
@.str.22 = private unnamed_addr constant [27 x i8] c"Negative seek position %zd\00", align 1
@.str.23 = private unnamed_addr constant [36 x i8] c"Can't do nonzero cur-relative seeks\00", align 1

; Function Attrs: alwaysinline nounwind uwtable
define internal i32 @_Py_IsImmortal(ptr noundef %0) #4 {
  %2 = alloca ptr, align 8
  store ptr %0, ptr %2, align 8, !tbaa !37
  %3 = load ptr, ptr %2, align 8, !tbaa !37
  %4 = getelementptr inbounds nuw %struct._object, ptr %3, i32 0, i32 0
  %5 = getelementptr inbounds nuw %struct.anon, ptr %4, i32 0, i32 0
  %6 = load i32, ptr %5, align 8, !tbaa !49
  %7 = icmp slt i32 %6, 0
  %8 = zext i1 %7 to i32
  ret i32 %8
}

; Function Attrs: nounwind uwtable
define internal ptr @_io_StringIO_seek_impl(ptr noundef %0, i64 noundef %1, i32 noundef %2) #0 {
  %4 = alloca ptr, align 8
  %5 = alloca ptr, align 8
  %6 = alloca i64, align 8
  %7 = alloca i32, align 4
  store ptr %0, ptr %5, align 8, !tbaa !4
  store i64 %1, ptr %6, align 8, !tbaa !43
  store i32 %2, ptr %7, align 4, !tbaa !30
  %8 = load ptr, ptr %5, align 8, !tbaa !4
  %9 = getelementptr inbounds nuw %struct.stringio, ptr %8, i32 0, i32 7
  %10 = load i8, ptr %9, align 8, !tbaa !10
  %11 = sext i8 %10 to i32
  %12 = icmp sle i32 %11, 0
  br i1 %12, label %13, label %15

13:                                               ; preds = %3
  %14 = load ptr, ptr @PyExc_ValueError, align 8, !tbaa !37
  call void @PyErr_SetString(ptr noundef %14, ptr noundef @.str.2)
  store ptr null, ptr %4, align 8
  br label %78

15:                                               ; preds = %3
  %16 = load ptr, ptr %5, align 8, !tbaa !4
  %17 = getelementptr inbounds nuw %struct.stringio, ptr %16, i32 0, i32 8
  %18 = load i8, ptr %17, align 1, !tbaa !38
  %19 = icmp ne i8 %18, 0
  br i1 %19, label %20, label %22

20:                                               ; preds = %15
  %21 = load ptr, ptr @PyExc_ValueError, align 8, !tbaa !37
  call void @PyErr_SetString(ptr noundef %21, ptr noundef @.str.3)
  store ptr null, ptr %4, align 8
  br label %78

22:                                               ; preds = %15
  %23 = load i32, ptr %7, align 4, !tbaa !30
  %24 = icmp ne i32 %23, 0
  br i1 %24, label %25, label %35

25:                                               ; preds = %22
  %26 = load i32, ptr %7, align 4, !tbaa !30
  %27 = icmp ne i32 %26, 1
  br i1 %27, label %28, label %35

28:                                               ; preds = %25
  %29 = load i32, ptr %7, align 4, !tbaa !30
  %30 = icmp ne i32 %29, 2
  br i1 %30, label %31, label %35

31:                                               ; preds = %28
  %32 = load ptr, ptr @PyExc_ValueError, align 8, !tbaa !37
  %33 = load i32, ptr %7, align 4, !tbaa !30
  %34 = call ptr (ptr, ptr, ...) @PyErr_Format(ptr noundef %32, ptr noundef @.str.21, i32 noundef %33)
  store ptr null, ptr %4, align 8
  br label %78

35:                                               ; preds = %28, %25, %22
  %36 = load i64, ptr %6, align 8, !tbaa !43
  %37 = icmp slt i64 %36, 0
  br i1 %37, label %38, label %45

38:                                               ; preds = %35
  %39 = load i32, ptr %7, align 4, !tbaa !30
  %40 = icmp eq i32 %39, 0
  br i1 %40, label %41, label %45

41:                                               ; preds = %38
  %42 = load ptr, ptr @PyExc_ValueError, align 8, !tbaa !37
  %43 = load i64, ptr %6, align 8, !tbaa !43
  %44 = call ptr (ptr, ptr, ...) @PyErr_Format(ptr noundef %42, ptr noundef @.str.22, i64 noundef %43)
  store ptr null, ptr %4, align 8
  br label %78

45:                                               ; preds = %38, %35
  %46 = load i32, ptr %7, align 4, !tbaa !30
  %47 = icmp ne i32 %46, 0
  br i1 %47, label %48, label %53

48:                                               ; preds = %45
  %49 = load i64, ptr %6, align 8, !tbaa !43
  %50 = icmp ne i64 %49, 0
  br i1 %50, label %51, label %53

51:                                               ; preds = %48
  %52 = load ptr, ptr @PyExc_OSError, align 8, !tbaa !37
  call void @PyErr_SetString(ptr noundef %52, ptr noundef @.str.23)
  store ptr null, ptr %4, align 8
  br label %78

53:                                               ; preds = %48, %45
  br label %54

54:                                               ; preds = %53
  br label %55

55:                                               ; preds = %54
  %56 = load i32, ptr %7, align 4, !tbaa !30
  %57 = icmp eq i32 %56, 1
  br i1 %57, label %58, label %62

58:                                               ; preds = %55
  %59 = load ptr, ptr %5, align 8, !tbaa !4
  %60 = getelementptr inbounds nuw %struct.stringio, ptr %59, i32 0, i32 2
  %61 = load i64, ptr %60, align 8, !tbaa !52
  store i64 %61, ptr %6, align 8, !tbaa !43
  br label %70

62:                                               ; preds = %55
  %63 = load i32, ptr %7, align 4, !tbaa !30
  %64 = icmp eq i32 %63, 2
  br i1 %64, label %65, label %69

65:                                               ; preds = %62
  %66 = load ptr, ptr %5, align 8, !tbaa !4
  %67 = getelementptr inbounds nuw %struct.stringio, ptr %66, i32 0, i32 3
  %68 = load i64, ptr %67, align 8, !tbaa !53
  store i64 %68, ptr %6, align 8, !tbaa !43
  br label %69

69:                                               ; preds = %65, %62
  br label %70

70:                                               ; preds = %69, %58
  %71 = load i64, ptr %6, align 8, !tbaa !43
  %72 = load ptr, ptr %5, align 8, !tbaa !4
  %73 = getelementptr inbounds nuw %struct.stringio, ptr %72, i32 0, i32 2
  store i64 %71, ptr %73, align 8, !tbaa !52
  %74 = load ptr, ptr %5, align 8, !tbaa !4
  %75 = getelementptr inbounds nuw %struct.stringio, ptr %74, i32 0, i32 2
  %76 = load i64, ptr %75, align 8, !tbaa !52
  %77 = call ptr @PyLong_FromSsize_t(i64 noundef %76)
  store ptr %77, ptr %4, align 8
  br label %78

78:                                               ; preds = %70, %51, %41, %31, %20, %13
  %79 = load ptr, ptr %4, align 8
  ret ptr %79
}

; Function Attrs: alwaysinline nounwind uwtable
define internal void @Py_DECREF(ptr noundef %0) #4 {
  %2 = alloca ptr, align 8
  store ptr %0, ptr %2, align 8, !tbaa !37
  %3 = load ptr, ptr %2, align 8, !tbaa !37
  %4 = call i32 @_Py_IsImmortal(ptr noundef %3)
  %5 = icmp ne i32 %4, 0
  br i1 %5, label %6, label %7

6:                                                ; preds = %1
  br label %16

7:                                                ; preds = %1
  %8 = load ptr, ptr %2, align 8, !tbaa !37
  %9 = getelementptr inbounds nuw %struct._object, ptr %8, i32 0, i32 0
  %10 = getelementptr inbounds nuw %struct.anon, ptr %9, i32 0, i32 0
  %11 = load i32, ptr %10, align 8, !tbaa !49
  %12 = add i32 %11, -1
  store i32 %12, ptr %10, align 8, !tbaa !49
  %13 = icmp eq i32 %12, 0
  br i1 %13, label %14, label %16

14:                                               ; preds = %7
  %15 = load ptr, ptr %2, align 8, !tbaa !37
  call void @_Py_Dealloc(ptr noundef %15)
  br label %16

16:                                               ; preds = %6, %14, %7
  ret void
}

; Function Attrs: nounwind uwtable
define internal ptr @_io_StringIO_seek(ptr noundef %0, ptr noundef %1, i64 noundef %2) #0 {
  %4 = alloca ptr, align 8
  %5 = alloca ptr, align 8
  %6 = alloca ptr, align 8
  %7 = alloca i64, align 8
  %8 = alloca ptr, align 8
  %9 = alloca i64, align 8
  %10 = alloca i32, align 4
  %11 = alloca i64, align 8
  %12 = alloca ptr, align 8
  %13 = alloca i32, align 4
  store ptr %0, ptr %5, align 8, !tbaa !37
  store ptr %1, ptr %6, align 8, !tbaa !35
  store i64 %2, ptr %7, align 8, !tbaa !43
  call void @llvm.lifetime.start.p0(i64 8, ptr %8) #7
  store ptr null, ptr %8, align 8, !tbaa !37
  call void @llvm.lifetime.start.p0(i64 8, ptr %9) #7
  call void @llvm.lifetime.start.p0(i64 4, ptr %10) #7
  store i32 0, ptr %10, align 4, !tbaa !30
  %14 = load i64, ptr %7, align 8, !tbaa !43
  %15 = icmp sle i64 1, %14
  br i1 %15, label %16, label %19

16:                                               ; preds = %3
  %17 = load i64, ptr %7, align 8, !tbaa !43
  %18 = icmp sle i64 %17, 2
  br i1 %18, label %24, label %19

19:                                               ; preds = %16, %3
  %20 = load i64, ptr %7, align 8, !tbaa !43
  %21 = call i32 @_PyArg_CheckPositional(ptr noundef @.str.12, i64 noundef %20, i64 noundef 1, i64 noundef 2)
  %22 = icmp ne i32 %21, 0
  br i1 %22, label %24, label %23

23:                                               ; preds = %19
  br label %67

24:                                               ; preds = %19, %16
  call void @llvm.lifetime.start.p0(i64 8, ptr %11) #7
  store i64 -1, ptr %11, align 8, !tbaa !43
  call void @llvm.lifetime.start.p0(i64 8, ptr %12) #7
  %25 = load ptr, ptr %6, align 8, !tbaa !35
  %26 = getelementptr ptr, ptr %25, i64 0
  %27 = load ptr, ptr %26, align 8, !tbaa !37
  %28 = call ptr @_PyNumber_Index(ptr noundef %27)
  store ptr %28, ptr %12, align 8, !tbaa !37
  %29 = load ptr, ptr %12, align 8, !tbaa !37
  %30 = icmp ne ptr %29, null
  br i1 %30, label %31, label %35

31:                                               ; preds = %24
  %32 = load ptr, ptr %12, align 8, !tbaa !37
  %33 = call i64 @PyLong_AsSsize_t(ptr noundef %32)
  store i64 %33, ptr %11, align 8, !tbaa !43
  %34 = load ptr, ptr %12, align 8, !tbaa !37
  call void @Py_DECREF(ptr noundef %34)
  br label %35

35:                                               ; preds = %31, %24
  %36 = load i64, ptr %11, align 8, !tbaa !43
  %37 = icmp eq i64 %36, -1
  br i1 %37, label %38, label %42

38:                                               ; preds = %35
  %39 = call ptr @PyErr_Occurred()
  %40 = icmp ne ptr %39, null
  br i1 %40, label %41, label %42

41:                                               ; preds = %38
  store i32 2, ptr %13, align 4
  br label %44

42:                                               ; preds = %38, %35
  %43 = load i64, ptr %11, align 8, !tbaa !43
  store i64 %43, ptr %9, align 8, !tbaa !43
  store i32 0, ptr %13, align 4
  br label %44

44:                                               ; preds = %41, %42
  call void @llvm.lifetime.end.p0(i64 8, ptr %12) #7
  call void @llvm.lifetime.end.p0(i64 8, ptr %11) #7
  %45 = load i32, ptr %13, align 4
  switch i32 %45, label %69 [
    i32 0, label %46
    i32 2, label %67
  ]

46:                                               ; preds = %44
  %47 = load i64, ptr %7, align 8, !tbaa !43
  %48 = icmp slt i64 %47, 2
  br i1 %48, label %49, label %50

49:                                               ; preds = %46
  br label %62

50:                                               ; preds = %46
  %51 = load ptr, ptr %6, align 8, !tbaa !35
  %52 = getelementptr ptr, ptr %51, i64 1
  %53 = load ptr, ptr %52, align 8, !tbaa !37
  %54 = call i32 @PyLong_AsInt(ptr noundef %53)
  store i32 %54, ptr %10, align 4, !tbaa !30
  %55 = load i32, ptr %10, align 4, !tbaa !30
  %56 = icmp eq i32 %55, -1
  br i1 %56, label %57, label %61

57:                                               ; preds = %50
  %58 = call ptr @PyErr_Occurred()
  %59 = icmp ne ptr %58, null
  br i1 %59, label %60, label %61

60:                                               ; preds = %57
  br label %67

61:                                               ; preds = %57, %50
  br label %62

62:                                               ; preds = %61, %49
  %63 = load ptr, ptr %5, align 8, !tbaa !37
  %64 = load i64, ptr %9, align 8, !tbaa !43
  %65 = load i32, ptr %10, align 4, !tbaa !30
  %66 = call ptr @_io_StringIO_seek_impl(ptr noundef %63, i64 noundef %64, i32 noundef %65)
  store ptr %66, ptr %8, align 8, !tbaa !37
  br label %67

67:                                               ; preds = %62, %44, %60, %23
  %68 = load ptr, ptr %8, align 8, !tbaa !37
  store ptr %68, ptr %4, align 8
  store i32 1, ptr %13, align 4
  br label %69

69:                                               ; preds = %67, %44
  call void @llvm.lifetime.end.p0(i64 4, ptr %10) #7
  call void @llvm.lifetime.end.p0(i64 8, ptr %9) #7
  call void @llvm.lifetime.end.p0(i64 8, ptr %8) #7
  %70 = load ptr, ptr %4, align 8
  ret ptr %70
}