; Function Attrs: nounwind uwtable
define internal ptr @_io_StringIO_seek(ptr noundef captures(none) %0, ptr noundef readonly captures(none) %1, i64 noundef %2) #0 {
  %4 = add i64 %2, -1
  %or.cond = icmp ult i64 %4, 2
  br i1 %or.cond, label %7, label %5

5:                                                ; preds = %3
  %6 = tail call i32 @_PyArg_CheckPositional(ptr noundef nonnull @.str.12, i64 noundef %2, i64 noundef 1, i64 noundef 2) #6
  %.not = icmp eq i32 %6, 0
  br i1 %.not, label %_io_StringIO_seek_impl.exit, label %7

7:                                                ; preds = %3, %5
  %8 = load ptr, ptr %1, align 8, !tbaa !37
  %9 = tail call ptr @_PyNumber_Index(ptr noundef %8) #6
  %.not25 = icmp eq ptr %9, null
  br i1 %.not25, label %Py_DECREF.exit.thread, label %10

10:                                               ; preds = %7
  %11 = tail call i64 @PyLong_AsSsize_t(ptr noundef nonnull %9) #6
  %12 = load i32, ptr %9, align 8, !tbaa !32
  %.not.i = icmp sgt i32 %12, -1
  br i1 %.not.i, label %13, label %Py_DECREF.exit

13:                                               ; preds = %10
  %14 = add nsw i32 %12, -1
  store i32 %14, ptr %9, align 8, !tbaa !32
  %15 = icmp eq i32 %14, 0
  br i1 %15, label %16, label %Py_DECREF.exit

16:                                               ; preds = %13
  tail call void @_Py_Dealloc(ptr noundef nonnull %9) #6
  br label %Py_DECREF.exit

Py_DECREF.exit:                                   ; preds = %16, %13, %10
  %17 = icmp eq i64 %11, -1
  br i1 %17, label %Py_DECREF.exit.thread, label %19

Py_DECREF.exit.thread:                            ; preds = %7, %Py_DECREF.exit
  %18 = tail call ptr @PyErr_Occurred() #6
  %.not26 = icmp eq ptr %18, null
  br i1 %.not26, label %19, label %_io_StringIO_seek_impl.exit

19:                                               ; preds = %Py_DECREF.exit.thread, %Py_DECREF.exit
  %.01931.ph = phi i64 [ %11, %Py_DECREF.exit ], [ -1, %Py_DECREF.exit.thread ]
  %20 = icmp slt i64 %2, 2
  br i1 %20, label %28, label %21

21:                                               ; preds = %19
  %22 = getelementptr i8, ptr %1, i64 8
  %23 = load ptr, ptr %22, align 8, !tbaa !37
  %24 = tail call i32 @PyLong_AsInt(ptr noundef %23) #6
  %25 = icmp eq i32 %24, -1
  br i1 %25, label %26, label %28

26:                                               ; preds = %21
  %27 = tail call ptr @PyErr_Occurred() #6
  %.not27 = icmp eq ptr %27, null
  br i1 %.not27, label %28, label %_io_StringIO_seek_impl.exit

28:                                               ; preds = %21, %26, %19
  %.020 = phi i32 [ 0, %19 ], [ -1, %26 ], [ %24, %21 ]
  %29 = getelementptr inbounds nuw i8, ptr %0, i64 64
  %30 = load i8, ptr %29, align 8, !tbaa !14
  %31 = icmp slt i8 %30, 1
  br i1 %31, label %32, label %34

32:                                               ; preds = %28
  %33 = load ptr, ptr @PyExc_ValueError, align 8, !tbaa !37
  tail call void @PyErr_SetString(ptr noundef %33, ptr noundef nonnull @.str.2) #6
  br label %_io_StringIO_seek_impl.exit

34:                                               ; preds = %28
  %35 = getelementptr inbounds nuw i8, ptr %0, i64 65
  %36 = load i8, ptr %35, align 1, !tbaa !38
  %.not.i29 = icmp eq i8 %36, 0
  br i1 %.not.i29, label %39, label %37

37:                                               ; preds = %34
  %38 = load ptr, ptr @PyExc_ValueError, align 8, !tbaa !37
  tail call void @PyErr_SetString(ptr noundef %38, ptr noundef nonnull @.str.3) #6
  br label %_io_StringIO_seek_impl.exit

39:                                               ; preds = %34
  %40 = icmp ne i32 %.020, 0
  %or.cond3.i = icmp ugt i32 %.020, 2
  br i1 %or.cond3.i, label %41, label %44

41:                                               ; preds = %39
  %42 = load ptr, ptr @PyExc_ValueError, align 8, !tbaa !37
  %43 = tail call ptr (ptr, ptr, ...) @PyErr_Format(ptr noundef %42, ptr noundef nonnull @.str.21, i32 noundef %.020) #6
  br label %_io_StringIO_seek_impl.exit

44:                                               ; preds = %39
  %45 = icmp slt i64 %.01931.ph, 0
  %46 = icmp eq i32 %.020, 0
  %or.cond5.i = and i1 %45, %46
  br i1 %or.cond5.i, label %47, label %50

47:                                               ; preds = %44
  %48 = load ptr, ptr @PyExc_ValueError, align 8, !tbaa !37
  %49 = tail call ptr (ptr, ptr, ...) @PyErr_Format(ptr noundef %48, ptr noundef nonnull @.str.22, i64 noundef %.01931.ph) #6
  br label %_io_StringIO_seek_impl.exit

50:                                               ; preds = %44
  %51 = icmp ne i64 %.01931.ph, 0
  %or.cond7.i = and i1 %51, %40
  br i1 %or.cond7.i, label %52, label %54

52:                                               ; preds = %50
  %53 = load ptr, ptr @PyExc_OSError, align 8, !tbaa !37
  tail call void @PyErr_SetString(ptr noundef %53, ptr noundef nonnull @.str.23) #6
  br label %_io_StringIO_seek_impl.exit

54:                                               ; preds = %50
  switch i32 %.020, label %58 [
    i32 1, label %.sink.split.i
    i32 2, label %55
  ]

55:                                               ; preds = %54
  br label %.sink.split.i

.sink.split.i:                                    ; preds = %55, %54
  %.sink28.i = phi i64 [ 32, %55 ], [ 24, %54 ]
  %56 = getelementptr inbounds nuw i8, ptr %0, i64 %.sink28.i
  %57 = load i64, ptr %56, align 8, !tbaa !64
  br label %58

58:                                               ; preds = %.sink.split.i, %54
  %.025.i = phi i64 [ %.01931.ph, %54 ], [ %57, %.sink.split.i ]
  %59 = getelementptr inbounds nuw i8, ptr %0, i64 24
  store i64 %.025.i, ptr %59, align 8, !tbaa !42
  %60 = tail call ptr @PyLong_FromSsize_t(i64 noundef %.025.i) #6
  br label %_io_StringIO_seek_impl.exit

_io_StringIO_seek_impl.exit:                      ; preds = %58, %52, %47, %41, %37, %32, %Py_DECREF.exit.thread, %5, %26
  %.022 = phi ptr [ null, %26 ], [ null, %5 ], [ null, %Py_DECREF.exit.thread ], [ null, %32 ], [ null, %37 ], [ null, %41 ], [ null, %47 ], [ null, %52 ], [ %60, %58 ]
  ret ptr %.022
}